

Microchip MPLAB XC8 Assembler V2.20 build 20200408173844 
                                                                                               Sat Aug 08 14:20:11 2020

Microchip MPLAB XC8 C Compiler v2.20 (Free license) build 20200408173844 Og1 
     1                           	processor	16F630
     2                           	pagewidth 120
     3                           	opt	flic
     4                           	psect	cinit,global,class=CODE,merge=1,delta=2
     5                           	psect	bssBANK0,global,class=BANK0,space=1,delta=1,noexec
     6                           	psect	cstackCOMMON,global,class=COMMON,space=1,delta=1,noexec
     7                           	psect	cstackBANK0,global,class=BANK0,space=1,delta=1,noexec
     8                           	psect	maintext,global,class=CODE,split=1,delta=2
     9                           	psect	text1,local,class=CODE,merge=1,delta=2
    10                           	psect	text2,local,class=CODE,merge=1,delta=2
    11                           	psect	text3,local,class=CODE,merge=1,delta=2
    12                           	psect	text4,local,class=CODE,merge=1,delta=2
    13                           	psect	text5,local,class=CODE,merge=1,delta=2
    14                           	psect	text6,local,class=CODE,merge=1,delta=2
    15                           	psect	text7,local,class=CODE,merge=1,delta=2
    16                           	psect	text8,local,class=CODE,merge=1,delta=2
    17                           	psect	text9,local,class=CODE,merge=1,delta=2
    18                           	psect	config,global,abs,ovrld,class=CONFIG,space=4,delta=2,noexec
    19                           	dabs	1,0x5E,2
    20  0000                     
    21                           ; Version 2.20
    22                           ; Generated 12/02/2020 GMT
    23                           ; 
    24                           ; Copyright © 2020, Microchip Technology Inc. and its subsidiaries ("Microchip")
    25                           ; All rights reserved.
    26                           ; 
    27                           ; This software is developed by Microchip Technology Inc. and its subsidiaries ("Microch
      +                          ip").
    28                           ; 
    29                           ; Redistribution and use in source and binary forms, with or without modification, are
    30                           ; permitted provided that the following conditions are met:
    31                           ; 
    32                           ;     1. Redistributions of source code must retain the above copyright notice, this lis
      +                          t of
    33                           ;        conditions and the following disclaimer.
    34                           ; 
    35                           ;     2. Redistributions in binary form must reproduce the above copyright notice, this 
      +                          list
    36                           ;        of conditions and the following disclaimer in the documentation and/or other
    37                           ;        materials provided with the distribution.
    38                           ; 
    39                           ;     3. Microchip's name may not be used to endorse or promote products derived from th
      +                          is
    40                           ;        software without specific prior written permission.
    41                           ; 
    42                           ; THIS SOFTWARE IS PROVIDED BY MICROCHIP "AS IS" AND ANY EXPRESS OR IMPLIED WARRANTIES,
    43                           ; INCLUDING, BUT NOT LIMITED TO, THE IMPLIED WARRANTIES OF MERCHANTABILITY AND FITNESS F
      +                          OR
    44                           ; PURPOSE ARE DISCLAIMED.  IN NO EVENT SHALL MICROCHIP BE LIABLE FOR ANY DIRECT, INDIREC
      +                          T,
    45                           ; INCIDENTAL, SPECIAL, EXEMPLARY, OR CONSEQUENTIAL DAMAGES (INCLUDING BUT NOT LIMITED TO
    46                           ; PROCUREMENT OF SUBSTITUTE GOODS OR SERVICES; LOSS OF USE, DATA OR PROFITS; OR BUSINESS
    47                           ; INTERRUPTION) HOWSOEVER CAUSED AND ON ANY THEORY OF LIABILITY, WHETHER IN CONTRACT, ST
      +                          RICT
    48                           ; LIABILITY, OR TORT (INCLUDING NEGLIGENCE OR OTHERWISE) ARISING IN ANY WAY OUT OF THE U
      +                          SE OF
    49                           ; THIS SOFTWARE, EVEN IF ADVISED OF THE POSSIBILITY OF SUCH DAMAGE.
    50                           ; 
    51                           ; 
    52                           ; Code-generator required, PIC16F630 Definitions
    53                           ; 
    54                           ; SFR Addresses
    55  0000                     	;# 
    56  0001                     	;# 
    57  0002                     	;# 
    58  0003                     	;# 
    59  0004                     	;# 
    60  0005                     	;# 
    61  0007                     	;# 
    62  000A                     	;# 
    63  000B                     	;# 
    64  000C                     	;# 
    65  000E                     	;# 
    66  000E                     	;# 
    67  000F                     	;# 
    68  0010                     	;# 
    69  0019                     	;# 
    70  0081                     	;# 
    71  0085                     	;# 
    72  0087                     	;# 
    73  008C                     	;# 
    74  008E                     	;# 
    75  0090                     	;# 
    76  0095                     	;# 
    77  0095                     	;# 
    78  0096                     	;# 
    79  0096                     	;# 
    80  0099                     	;# 
    81  009A                     	;# 
    82  009A                     	;# 
    83  009B                     	;# 
    84  009C                     	;# 
    85  009D                     	;# 
    86  0000                     	;# 
    87  0001                     	;# 
    88  0002                     	;# 
    89  0003                     	;# 
    90  0004                     	;# 
    91  0005                     	;# 
    92  0007                     	;# 
    93  000A                     	;# 
    94  000B                     	;# 
    95  000C                     	;# 
    96  000E                     	;# 
    97  000E                     	;# 
    98  000F                     	;# 
    99  0010                     	;# 
   100  0019                     	;# 
   101  0081                     	;# 
   102  0085                     	;# 
   103  0087                     	;# 
   104  008C                     	;# 
   105  008E                     	;# 
   106  0090                     	;# 
   107  0095                     	;# 
   108  0095                     	;# 
   109  0096                     	;# 
   110  0096                     	;# 
   111  0099                     	;# 
   112  009A                     	;# 
   113  009A                     	;# 
   114  009B                     	;# 
   115  009C                     	;# 
   116  009D                     	;# 
   117  0019                     _CMCON	set	25
   118  0007                     _PORTCbits	set	7
   119  0005                     _PORTAbits	set	5
   120  0007                     _PORTC	set	7
   121  0001                     _TMR0	set	1
   122  005A                     _T0IF	set	90
   123  0085                     _TRISA	set	133
   124  0081                     _OPTION_REG	set	129
   125  0087                     _TRISCbits	set	135
   126  0087                     _TRISC	set	135
   127  009D                     _EECON2	set	157
   128  009C                     _EECON1bits	set	156
   129  009A                     _EEDATA	set	154
   130  009B                     _EEADR	set	155
   131  0081                     _OPTION_REGbits	set	129
   132                           
   133                           	psect	cinit
   134  03F4                     start_initialization:	
   135                           ; #config settings
   136                           
   137  03F4                     __initialization:
   138                           
   139                           ; Clear objects allocated to BANK0
   140  03F4  1283               	bcf	3,5	;RP0=0, select bank0
   141  03F5  01B1               	clrf	__pbssBANK0& (0+127)
   142  03F6  01B2               	clrf	(__pbssBANK0+1)& (0+127)
   143  03F7  01B3               	clrf	(__pbssBANK0+2)& (0+127)
   144  03F8  01B4               	clrf	(__pbssBANK0+3)& (0+127)
   145  03F9  01B5               	clrf	(__pbssBANK0+4)& (0+127)
   146  03FA  01B6               	clrf	(__pbssBANK0+5)& (0+127)
   147  03FB  01B7               	clrf	(__pbssBANK0+6)& (0+127)
   148  03FC  01B8               	clrf	(__pbssBANK0+7)& (0+127)
   149  03FD                     end_of_initialization:	
   150                           ;End of C runtime variable initialization code
   151                           
   152  03FD                     __end_of__initialization:
   153  03FD  0183               	clrf	3
   154  03FE  2A10               	ljmp	_main	;jump to C main() function
   155                           
   156                           	psect	bssBANK0
   157  0031                     __pbssBANK0:
   158  0031                     _dem1:
   159  0031                     	ds	2
   160  0033                     _changed:
   161  0033                     	ds	2
   162  0035                     _dem2:
   163  0035                     	ds	1
   164  0036                     _eep1:
   165  0036                     	ds	1
   166  0037                     _eepselect:
   167  0037                     	ds	1
   168  0038                     _eepdata:
   169  0038                     	ds	1
   170                           
   171                           	psect	cstackCOMMON
   172  0000                     __pcstackCOMMON:
   173  0000                     ??_mydelay:
   174  0000                     ??_eepromwrite:	
   175                           ; 1 bytes @ 0x0
   176                           
   177  0000                     ??_volt12:	
   178                           ; 1 bytes @ 0x0
   179                           
   180  0000                     ??_volt9:	
   181                           ; 1 bytes @ 0x0
   182                           
   183  0000                     ??_volt5:	
   184                           ; 1 bytes @ 0x0
   185                           
   186  0000                     ??_inc200mv:	
   187                           ; 1 bytes @ 0x0
   188                           
   189  0000                     ??_dec200mv:	
   190                           ; 1 bytes @ 0x0
   191                           
   192  0000                     ??_main:	
   193                           ; 1 bytes @ 0x0
   194                           
   195                           
   196                           	psect	cstackBANK0
   197  0020                     __pcstackBANK0:	
   198                           ; 1 bytes @ 0x0
   199                           
   200  0020                     ?_volt12:
   201  0020                     ?_volt9:	
   202                           ; 1 bytes @ 0x0
   203                           
   204  0020                     ?_volt5:	
   205                           ; 1 bytes @ 0x0
   206                           
   207  0020                     ?_inc200mv:	
   208                           ; 1 bytes @ 0x0
   209                           
   210  0020                     ?_dec200mv:	
   211                           ; 1 bytes @ 0x0
   212                           
   213  0020                     ?_INOV:	
   214                           ; 1 bytes @ 0x0
   215                           
   216  0020                     ?_main:	
   217                           ; 1 bytes @ 0x0
   218                           
   219  0020                     ?_mydelay:	
   220                           ; 1 bytes @ 0x0
   221                           
   222  0020                     ?_eepromwrite:	
   223                           ; 2 bytes @ 0x0
   224                           
   225  0020                     ?_eepromread:	
   226                           ; 2 bytes @ 0x0
   227                           
   228  0020                     mydelay@t:	
   229                           ; 2 bytes @ 0x0
   230                           
   231  0020                     eepromwrite@add:	
   232                           ; 2 bytes @ 0x0
   233                           
   234  0020                     eepromread@add:	
   235                           ; 2 bytes @ 0x0
   236                           
   237                           
   238                           ; 2 bytes @ 0x0
   239  0020                     	ds	2
   240  0022                     ??_eepromread:
   241  0022                     mydelay@i:	
   242                           ; 1 bytes @ 0x2
   243                           
   244  0022                     eepromwrite@dat:	
   245                           ; 2 bytes @ 0x2
   246                           
   247                           
   248                           ; 2 bytes @ 0x2
   249  0022                     	ds	2
   250  0024                     eepromread@dat:
   251                           
   252                           ; 2 bytes @ 0x4
   253  0024                     	ds	2
   254  0026                     ??_INOV:
   255                           
   256                           ; 1 bytes @ 0x6
   257  0026                     	ds	3
   258  0029                     INOV@i:
   259                           
   260                           ; 2 bytes @ 0x9
   261  0029                     	ds	2
   262  002B                     INOV@i_185:
   263                           
   264                           ; 2 bytes @ 0xB
   265  002B                     	ds	2
   266  002D                     INOV@t:
   267                           
   268                           ; 1 bytes @ 0xD
   269  002D                     	ds	1
   270  002E                     INOV@t1:
   271                           
   272                           ; 1 bytes @ 0xE
   273  002E                     	ds	1
   274  002F                     INOV@t_190:
   275                           
   276                           ; 1 bytes @ 0xF
   277  002F                     	ds	1
   278  0030                     INOV@t1_191:
   279                           
   280                           ; 1 bytes @ 0x10
   281  0030                     	ds	1
   282                           
   283                           	psect	maintext
   284  0210                     __pmaintext:	
   285 ;;
   286 ;;Main: autosize = 0, tempsize = 0, incstack = 0, save=0
   287 ;;
   288 ;; *************** function _main *****************
   289 ;; Defined at:
   290 ;;		line 156 in file "QC3-16F630-C.c"
   291 ;; Parameters:    Size  Location     Type
   292 ;;		None
   293 ;; Auto vars:     Size  Location     Type
   294 ;;		None
   295 ;; Return value:  Size  Location     Type
   296 ;;                  1    wreg      void 
   297 ;; Registers used:
   298 ;;		wreg, fsr0l, fsr0h, status,2, status,0, btemp+1, pclath, cstack
   299 ;; Tracked objects:
   300 ;;		On entry : B00/0
   301 ;;		On exit  : 0/0
   302 ;;		Unchanged: 0/0
   303 ;; Data sizes:     COMMON   BANK0
   304 ;;      Params:         0       0
   305 ;;      Locals:         0       0
   306 ;;      Temps:          0       0
   307 ;;      Totals:         0       0
   308 ;;Total ram usage:        0 bytes
   309 ;; Hardware stack levels required when called:    3
   310 ;; This function calls:
   311 ;;		_INOV
   312 ;;		_eepromread
   313 ;;		_mydelay
   314 ;;		_volt12
   315 ;;		_volt5
   316 ;;		_volt9
   317 ;; This function is called by:
   318 ;;		Startup code after reset
   319 ;; This function uses a non-reentrant model
   320 ;;
   321                           
   322                           
   323                           ;psect for function _main
   324  0210                     _main:
   325  0210                     l1118:	
   326                           ;incstack = 0
   327                           ; Regs used in _main: [wreg-fsr0h+status,2+status,0+btemp+1+pclath+cstack]
   328                           
   329                           
   330                           ;QC3-16F630-C.c: 157:     PORTCbits.RC3 = 0;
   331  0210  3018               	movlw	24
   332  0211  1683               	bsf	3,5	;RP0=1, select bank1
   333  0212  0087               	movwf	7	;volatile
   334  0213                     l1120:
   335                           
   336                           ;QC3-16F630-C.c: 158: 
   337  0213  1283               	bcf	3,5	;RP0=0, select bank0
   338  0214  0187               	clrf	7	;volatile
   339  0215                     l1122:
   340                           
   341                           ;QC3-16F630-C.c: 159:     eepdata = eepromread(0x00);
   342  0215  3007               	movlw	7
   343  0216  0099               	movwf	25	;volatile
   344                           
   345                           ;QC3-16F630-C.c: 160:     mydelay(253);
   346  0217  1683               	bsf	3,5	;RP0=1, select bank1
   347  0218  0181               	clrf	1	;volatile
   348  0219                     l1124:
   349                           
   350                           ;QC3-16F630-C.c: 161:     eepselect = eepromread(0x01);
   351  0219  30FD               	movlw	253
   352  021A  0085               	movwf	5	;volatile
   353  021B                     l1126:
   354                           
   355                           ;QC3-16F630-C.c: 162:     if(eepdata == 0x60){
   356  021B  1283               	bcf	3,5	;RP0=0, select bank0
   357  021C  1085               	bcf	5,1	;volatile
   358  021D                     l1128:
   359                           
   360                           ;QC3-16F630-C.c: 164:     }
   361  021D  1683               	bsf	3,5	;RP0=1, select bank1
   362  021E  1587               	bsf	7,3	;volatile
   363  021F                     l1130:
   364                           
   365                           ;QC3-16F630-C.c: 165:     if(eepdata == 0x25 && eepselect == 0x00 ){
   366  021F  3016               	movlw	22
   367  0220  1283               	bcf	3,5	;RP0=0, select bank0
   368  0221  00A0               	movwf	mydelay@t
   369  0222  3000               	movlw	0
   370  0223  00A1               	movwf	mydelay@t+1
   371  0224  21E7               	fcall	_mydelay
   372  0225                     l1132:
   373                           
   374                           ;QC3-16F630-C.c: 166:         dem1 = 0;
   375  0225  1683               	bsf	3,5	;RP0=1, select bank1
   376  0226  1187               	bcf	7,3	;volatile
   377  0227                     l1134:
   378                           
   379                           ;QC3-16F630-C.c: 167:     }
   380  0227  1283               	bcf	3,5	;RP0=0, select bank0
   381  0228  1187               	bcf	7,3	;volatile
   382  0229                     l1136:
   383                           
   384                           ;QC3-16F630-C.c: 169:         dem1 = 2;
   385  0229  3000               	movlw	0
   386  022A  00A0               	movwf	eepromread@add
   387  022B  00A1               	movwf	eepromread@add+1
   388  022C  21A3               	fcall	_eepromread
   389  022D  1283               	bcf	3,5	;RP0=0, select bank0
   390  022E  0820               	movf	?_eepromread,w
   391  022F  00DF               	movwf	btemp+1
   392  0230  085F               	movf	btemp+1,w
   393  0231  00B8               	movwf	_eepdata
   394  0232                     l1138:
   395                           
   396                           ;QC3-16F630-C.c: 170:     }
   397  0232  30FD               	movlw	253
   398  0233  00A0               	movwf	mydelay@t
   399  0234  3000               	movlw	0
   400  0235  00A1               	movwf	mydelay@t+1
   401  0236  21E7               	fcall	_mydelay
   402  0237                     l1140:
   403                           
   404                           ;QC3-16F630-C.c: 171:     if(eepdata == 0x25 && eepselect == 0x01){
   405  0237  3001               	movlw	1
   406  0238  1283               	bcf	3,5	;RP0=0, select bank0
   407  0239  00A0               	movwf	eepromread@add
   408  023A  3000               	movlw	0
   409  023B  00A1               	movwf	eepromread@add+1
   410  023C  21A3               	fcall	_eepromread
   411  023D  1283               	bcf	3,5	;RP0=0, select bank0
   412  023E  0820               	movf	?_eepromread,w
   413  023F  00DF               	movwf	btemp+1
   414  0240  085F               	movf	btemp+1,w
   415  0241  00B7               	movwf	_eepselect
   416  0242                     l1142:
   417                           
   418                           ;QC3-16F630-C.c: 172:         dem1 = 1;
   419  0242  3060               	movlw	96
   420  0243  0638               	xorwf	_eepdata,w
   421  0244  1D03               	btfss	3,2
   422  0245  2A47               	goto	u381
   423  0246  2A48               	goto	u380
   424  0247                     u381:
   425  0247  2A4C               	goto	l1146
   426  0248                     u380:
   427  0248                     l1144:
   428                           
   429                           ;QC3-16F630-C.c: 173:     }
   430  0248  3003               	movlw	3
   431  0249  00B1               	movwf	_dem1
   432  024A  3000               	movlw	0
   433  024B  00B2               	movwf	_dem1+1
   434  024C                     l1146:
   435                           
   436                           ;QC3-16F630-C.c: 175:         dem1 = 1;
   437  024C  3025               	movlw	37
   438  024D  0638               	xorwf	_eepdata,w
   439  024E  1D03               	btfss	3,2
   440  024F  2A51               	goto	u391
   441  0250  2A52               	goto	u390
   442  0251                     u391:
   443  0251  2A59               	goto	l1152
   444  0252                     u390:
   445  0252                     l1148:
   446  0252  0837               	movf	_eepselect,w
   447  0253  1D03               	btfss	3,2
   448  0254  2A56               	goto	u401
   449  0255  2A57               	goto	u400
   450  0256                     u401:
   451  0256  2A59               	goto	l1152
   452  0257                     u400:
   453  0257                     l1150:
   454                           
   455                           ;QC3-16F630-C.c: 176:         changed = 1;
   456  0257  01B1               	clrf	_dem1
   457  0258  01B2               	clrf	_dem1+1
   458  0259                     l1152:
   459                           
   460                           ;QC3-16F630-C.c: 178:     while(1){
   461  0259  3045               	movlw	69
   462  025A  0638               	xorwf	_eepdata,w
   463  025B  1D03               	btfss	3,2
   464  025C  2A5E               	goto	u411
   465  025D  2A5F               	goto	u410
   466  025E                     u411:
   467  025E  2A63               	goto	l1156
   468  025F                     u410:
   469  025F                     l1154:
   470                           
   471                           ;QC3-16F630-C.c: 179:     dem1++;
   472  025F  3002               	movlw	2
   473  0260  00B1               	movwf	_dem1
   474  0261  3000               	movlw	0
   475  0262  00B2               	movwf	_dem1+1
   476  0263                     l1156:
   477                           
   478                           ;QC3-16F630-C.c: 181:         case 1: volt5(); break;
   479  0263  3025               	movlw	37
   480  0264  0638               	xorwf	_eepdata,w
   481  0265  1D03               	btfss	3,2
   482  0266  2A68               	goto	u421
   483  0267  2A69               	goto	u420
   484  0268                     u421:
   485  0268  2A72               	goto	l1162
   486  0269                     u420:
   487  0269                     l1158:
   488  0269  0337               	decf	_eepselect,w
   489  026A  1D03               	btfss	3,2
   490  026B  2A6D               	goto	u431
   491  026C  2A6E               	goto	u430
   492  026D                     u431:
   493  026D  2A72               	goto	l1162
   494  026E                     u430:
   495  026E                     l1160:
   496                           
   497                           ;QC3-16F630-C.c: 182:         case 2: INOV(); break;
   498  026E  3001               	movlw	1
   499  026F  00B1               	movwf	_dem1
   500  0270  3000               	movlw	0
   501  0271  00B2               	movwf	_dem1+1
   502  0272                     l1162:
   503                           
   504                           ;QC3-16F630-C.c: 184:         case 4: volt12(); dem1 = 0; break;
   505  0272  3025               	movlw	37
   506  0273  0638               	xorwf	_eepdata,w
   507  0274  1903               	btfsc	3,2
   508  0275  2A77               	goto	u441
   509  0276  2A78               	goto	u440
   510  0277                     u441:
   511  0277  2A85               	goto	l104
   512  0278                     u440:
   513  0278                     l1164:
   514  0278  0337               	decf	_eepselect,w
   515  0279  1D03               	btfss	3,2
   516  027A  2A7C               	goto	u451
   517  027B  2A7D               	goto	u450
   518  027C                     u451:
   519  027C  2A85               	goto	l104
   520  027D                     u450:
   521  027D                     l1166:
   522                           
   523                           ;QC3-16F630-C.c: 185:     }
   524  027D  3001               	movlw	1
   525  027E  00B1               	movwf	_dem1
   526  027F  3000               	movlw	0
   527  0280  00B2               	movwf	_dem1+1
   528                           
   529                           ;QC3-16F630-C.c: 186:     mydelay(178);
   530  0281  3001               	movlw	1
   531  0282  00B3               	movwf	_changed
   532  0283  3000               	movlw	0
   533  0284  00B4               	movwf	_changed+1
   534  0285                     l104:	
   535                           ;QC3-16F630-C.c: 188: 
   536                           
   537                           
   538                           ;QC3-16F630-C.c: 189:     }
   539  0285  3001               	movlw	1
   540  0286  07B1               	addwf	_dem1,f
   541  0287  1803               	skipnc
   542  0288  0AB2               	incf	_dem1+1,f
   543  0289  3000               	movlw	0
   544  028A  07B2               	addwf	_dem1+1,f
   545                           
   546                           ;QC3-16F630-C.c: 190:     }
   547  028B  2A97               	goto	l1180
   548  028C                     l1168:
   549  028C  21C7               	fcall	_volt5
   550  028D  2AAA               	goto	l1182
   551  028E                     l1170:
   552  028E  22B7               	fcall	_INOV
   553  028F  2AAA               	goto	l1182
   554  0290                     l1172:
   555  0290  2182               	fcall	_volt9
   556  0291  2AAA               	goto	l1182
   557  0292                     l1174:
   558  0292  2173               	fcall	_volt12
   559  0293                     l1176:
   560  0293  1283               	bcf	3,5	;RP0=0, select bank0
   561  0294  01B1               	clrf	_dem1
   562  0295  01B2               	clrf	_dem1+1
   563  0296  2AAA               	goto	l1182
   564  0297                     l1180:
   565                           
   566                           ; Switch on 2 bytes has been partitioned into a top level switch of size 1, and 1 sub-sw
      +                          itches
   567                           ; Switch size 1, requested type "simple"
   568                           ; Number of cases is 1, Range of values is 0 to 0
   569                           ; switch strategies available:
   570                           ; Name         Instructions Cycles
   571                           ; simple_byte            4     3 (average)
   572                           ; direct_byte            7     6 (fixed)
   573                           ; jumptable            260     6 (fixed)
   574                           ;	Chosen strategy is simple_byte
   575  0297  0832               	movf	_dem1+1,w
   576  0298  3A00               	xorlw	0	; case 0
   577  0299  1903               	skipnz
   578  029A  2A9C               	goto	l1220
   579  029B  2AAA               	goto	l1182
   580  029C                     l1220:
   581                           
   582                           ; Switch size 1, requested type "simple"
   583                           ; Number of cases is 4, Range of values is 1 to 4
   584                           ; switch strategies available:
   585                           ; Name         Instructions Cycles
   586                           ; simple_byte           13     7 (average)
   587                           ; direct_byte           13     9 (fixed)
   588                           ; jumptable            263     9 (fixed)
   589                           ;	Chosen strategy is simple_byte
   590  029C  0831               	movf	_dem1,w
   591  029D  3A01               	xorlw	1	; case 1
   592  029E  1903               	skipnz
   593  029F  2A8C               	goto	l1168
   594  02A0  3A03               	xorlw	3	; case 2
   595  02A1  1903               	skipnz
   596  02A2  2A8E               	goto	l1170
   597  02A3  3A01               	xorlw	1	; case 3
   598  02A4  1903               	skipnz
   599  02A5  2A90               	goto	l1172
   600  02A6  3A07               	xorlw	7	; case 4
   601  02A7  1903               	skipnz
   602  02A8  2A92               	goto	l1174
   603  02A9  2AAA               	goto	l1182
   604  02AA                     l1182:
   605  02AA  30B2               	movlw	178
   606  02AB  1283               	bcf	3,5	;RP0=0, select bank0
   607  02AC  00A0               	movwf	mydelay@t
   608  02AD  3000               	movlw	0
   609  02AE  00A1               	movwf	mydelay@t+1
   610  02AF  21E7               	fcall	_mydelay
   611  02B0                     l111:
   612  02B0  1283               	bcf	3,5	;RP0=0, select bank0
   613  02B1  1905               	btfsc	5,2	;volatile
   614  02B2  2AB4               	goto	u461
   615  02B3  2AB5               	goto	u460
   616  02B4                     u461:
   617  02B4  2AB0               	goto	l111
   618  02B5                     u460:
   619  02B5  2A85               	goto	l104
   620  02B6  2800               	ljmp	start
   621  02B7                     __end_of_main:
   622                           
   623                           	psect	text1
   624  0182                     __ptext1:	
   625 ;; *************** function _volt9 *****************
   626 ;; Defined at:
   627 ;;		line 53 in file "QC3-16F630-C.c"
   628 ;; Parameters:    Size  Location     Type
   629 ;;		None
   630 ;; Auto vars:     Size  Location     Type
   631 ;;		None
   632 ;; Return value:  Size  Location     Type
   633 ;;                  1    wreg      void 
   634 ;; Registers used:
   635 ;;		wreg, status,2, status,0, pclath, cstack
   636 ;; Tracked objects:
   637 ;;		On entry : 0/0
   638 ;;		On exit  : 0/0
   639 ;;		Unchanged: 0/0
   640 ;; Data sizes:     COMMON   BANK0
   641 ;;      Params:         0       0
   642 ;;      Locals:         0       0
   643 ;;      Temps:          0       0
   644 ;;      Totals:         0       0
   645 ;;Total ram usage:        0 bytes
   646 ;; Hardware stack levels used:    1
   647 ;; Hardware stack levels required when called:    1
   648 ;; This function calls:
   649 ;;		_eepromwrite
   650 ;; This function is called by:
   651 ;;		_main
   652 ;; This function uses a non-reentrant model
   653 ;;
   654                           
   655                           
   656                           ;psect for function _volt9
   657  0182                     _volt9:
   658  0182                     l1020:	
   659                           ;incstack = 0
   660                           ; Regs used in _volt9: [wreg+status,2+status,0+pclath+cstack]
   661                           
   662                           
   663                           ;QC3-16F630-C.c: 57:     PORTAbits.RA1 = 0;
   664  0182  3008               	movlw	8
   665  0183  1683               	bsf	3,5	;RP0=1, select bank1
   666  0184  0087               	movwf	7	;volatile
   667                           
   668                           ;QC3-16F630-C.c: 58:     dem2 = 0x00;
   669  0185  3012               	movlw	18
   670  0186  1283               	bcf	3,5	;RP0=0, select bank0
   671  0187  0087               	movwf	7	;volatile
   672  0188                     l1022:
   673                           
   674                           ;QC3-16F630-C.c: 59:     eepromwrite(0x00,0x25);
   675  0188  3000               	movlw	0
   676  0189  00A0               	movwf	eepromwrite@add
   677  018A  00A1               	movwf	eepromwrite@add+1
   678  018B  3045               	movlw	69
   679  018C  00A2               	movwf	eepromwrite@dat
   680  018D  3000               	movlw	0
   681  018E  00A3               	movwf	eepromwrite@dat+1
   682  018F  2164               	fcall	_eepromwrite
   683  0190                     l62:
   684  0190  0008               	return
   685  0191                     __end_of_volt9:
   686                           
   687                           	psect	text2
   688  0173                     __ptext2:	
   689 ;; *************** function _volt12 *****************
   690 ;; Defined at:
   691 ;;		line 46 in file "QC3-16F630-C.c"
   692 ;; Parameters:    Size  Location     Type
   693 ;;		None
   694 ;; Auto vars:     Size  Location     Type
   695 ;;		None
   696 ;; Return value:  Size  Location     Type
   697 ;;                  1    wreg      void 
   698 ;; Registers used:
   699 ;;		wreg, status,2, status,0, pclath, cstack
   700 ;; Tracked objects:
   701 ;;		On entry : 0/0
   702 ;;		On exit  : 0/0
   703 ;;		Unchanged: 0/0
   704 ;; Data sizes:     COMMON   BANK0
   705 ;;      Params:         0       0
   706 ;;      Locals:         0       0
   707 ;;      Temps:          0       0
   708 ;;      Totals:         0       0
   709 ;;Total ram usage:        0 bytes
   710 ;; Hardware stack levels used:    1
   711 ;; Hardware stack levels required when called:    1
   712 ;; This function calls:
   713 ;;		_eepromwrite
   714 ;; This function is called by:
   715 ;;		_main
   716 ;; This function uses a non-reentrant model
   717 ;;
   718                           
   719                           
   720                           ;psect for function _volt12
   721  0173                     _volt12:
   722  0173                     l1016:	
   723                           ;incstack = 0
   724                           ; Regs used in _volt12: [wreg+status,2+status,0+pclath+cstack]
   725                           
   726                           
   727                           ;QC3-16F630-C.c: 49:     eepromwrite(0x00,0x45);
   728  0173  3018               	movlw	24
   729  0174  1683               	bsf	3,5	;RP0=1, select bank1
   730  0175  0087               	movwf	7	;volatile
   731                           
   732                           ;QC3-16F630-C.c: 50: }
   733  0176  3004               	movlw	4
   734  0177  1283               	bcf	3,5	;RP0=0, select bank0
   735  0178  0087               	movwf	7	;volatile
   736  0179                     l1018:
   737                           
   738                           ;QC3-16F630-C.c: 51: void volt5(){
   739  0179  3000               	movlw	0
   740  017A  00A0               	movwf	eepromwrite@add
   741  017B  00A1               	movwf	eepromwrite@add+1
   742  017C  3060               	movlw	96
   743  017D  00A2               	movwf	eepromwrite@dat
   744  017E  3000               	movlw	0
   745  017F  00A3               	movwf	eepromwrite@dat+1
   746  0180  2164               	fcall	_eepromwrite
   747  0181                     l59:
   748  0181  0008               	return
   749  0182                     __end_of_volt12:
   750                           
   751                           	psect	text3
   752  02B7                     __ptext3:	
   753 ;; *************** function _INOV *****************
   754 ;; Defined at:
   755 ;;		line 87 in file "QC3-16F630-C.c"
   756 ;; Parameters:    Size  Location     Type
   757 ;;		None
   758 ;; Auto vars:     Size  Location     Type
   759 ;;  t1              1   16[BANK0 ] unsigned char 
   760 ;;  t               1   15[BANK0 ] unsigned char 
   761 ;;  t1              1   14[BANK0 ] unsigned char 
   762 ;;  t               1   13[BANK0 ] unsigned char 
   763 ;;  i               2   11[BANK0 ] int 
   764 ;;  i               2    9[BANK0 ] int 
   765 ;; Return value:  Size  Location     Type
   766 ;;                  1    wreg      void 
   767 ;; Registers used:
   768 ;;		wreg, status,2, status,0, btemp+1, pclath, cstack
   769 ;; Tracked objects:
   770 ;;		On entry : 0/0
   771 ;;		On exit  : 0/0
   772 ;;		Unchanged: 0/0
   773 ;; Data sizes:     COMMON   BANK0
   774 ;;      Params:         0       0
   775 ;;      Locals:         0       8
   776 ;;      Temps:          0       3
   777 ;;      Totals:         0      11
   778 ;;Total ram usage:       11 bytes
   779 ;; Hardware stack levels used:    1
   780 ;; Hardware stack levels required when called:    2
   781 ;; This function calls:
   782 ;;		_dec200mv
   783 ;;		_eepromread
   784 ;;		_eepromwrite
   785 ;;		_inc200mv
   786 ;;		_mydelay
   787 ;;		_volt5
   788 ;; This function is called by:
   789 ;;		_main
   790 ;; This function uses a non-reentrant model
   791 ;;
   792                           
   793                           
   794                           ;psect for function _INOV
   795  02B7                     _INOV:
   796  02B7                     l1024:	
   797                           ;incstack = 0
   798                           ; Regs used in _INOV: [wreg+status,2+status,0+btemp+1+pclath+cstack]
   799                           
   800                           
   801                           ;QC3-16F630-C.c: 91:                 inc200mv();
   802  02B7  3010               	movlw	16
   803  02B8  1683               	bsf	3,5	;RP0=1, select bank1
   804  02B9  0087               	movwf	7	;volatile
   805                           
   806                           ;QC3-16F630-C.c: 92:                 mydelay(253);
   807  02BA  3008               	movlw	8
   808  02BB  1283               	bcf	3,5	;RP0=0, select bank0
   809  02BC  0087               	movwf	7	;volatile
   810  02BD                     l1026:
   811                           
   812                           ;QC3-16F630-C.c: 93:             }
   813  02BD  1485               	bsf	5,1	;volatile
   814  02BE                     l1028:
   815                           
   816                           ;QC3-16F630-C.c: 94:             dem2 = eep1 -0x25;
   817  02BE  0333               	decf	_changed,w
   818  02BF  0434               	iorwf	_changed+1,w
   819  02C0  1D03               	btfss	3,2
   820  02C1  2AC3               	goto	u261
   821  02C2  2AC4               	goto	u260
   822  02C3                     u261:
   823  02C3  2B88               	goto	l1086
   824  02C4                     u260:
   825  02C4                     l1030:
   826                           
   827                           ;QC3-16F630-C.c: 96:         if(eep1 < 0x25){
   828  02C4  3001               	movlw	1
   829  02C5  00A0               	movwf	eepromwrite@add
   830  02C6  3000               	movlw	0
   831  02C7  00A1               	movwf	eepromwrite@add+1
   832  02C8  3001               	movlw	1
   833  02C9  00A2               	movwf	eepromwrite@dat
   834  02CA  3000               	movlw	0
   835  02CB  00A3               	movwf	eepromwrite@dat+1
   836  02CC  2164               	fcall	_eepromwrite
   837  02CD                     l1032:
   838                           
   839                           ;QC3-16F630-C.c: 97:             for(int i = 0x00; i <= 0x25 - eep1; i++){
   840  02CD  30FD               	movlw	253
   841  02CE  1283               	bcf	3,5	;RP0=0, select bank0
   842  02CF  00A0               	movwf	mydelay@t
   843  02D0  3000               	movlw	0
   844  02D1  00A1               	movwf	mydelay@t+1
   845  02D2  21E7               	fcall	_mydelay
   846  02D3                     l1034:
   847                           
   848                           ;QC3-16F630-C.c: 98:                 dec200mv();
   849  02D3  3000               	movlw	0
   850  02D4  1283               	bcf	3,5	;RP0=0, select bank0
   851  02D5  00A0               	movwf	eepromread@add
   852  02D6  00A1               	movwf	eepromread@add+1
   853  02D7  21A3               	fcall	_eepromread
   854  02D8  1283               	bcf	3,5	;RP0=0, select bank0
   855  02D9  0820               	movf	?_eepromread,w
   856  02DA  00DF               	movwf	btemp+1
   857  02DB  085F               	movf	btemp+1,w
   858  02DC  00B6               	movwf	_eep1
   859  02DD                     l1036:
   860                           
   861                           ;QC3-16F630-C.c: 99:                 mydelay(253);
   862  02DD  3026               	movlw	38
   863  02DE  0236               	subwf	_eep1,w
   864  02DF  1C03               	skipc
   865  02E0  2AE2               	goto	u271
   866  02E1  2AE3               	goto	u270
   867  02E2                     u271:
   868  02E2  2B0F               	goto	l1048
   869  02E3                     u270:
   870  02E3                     l1038:
   871                           
   872                           ;QC3-16F630-C.c: 100:             }
   873  02E3  01A9               	clrf	INOV@i
   874  02E4  01AA               	clrf	INOV@i+1
   875  02E5  2AF4               	goto	l1044
   876  02E6                     l1040:
   877                           
   878                           ;QC3-16F630-C.c: 101:             dem2 = 0x25 - eep1;
   879  02E6  21B5               	fcall	_inc200mv
   880                           
   881                           ;QC3-16F630-C.c: 102:         }
   882  02E7  30FD               	movlw	253
   883  02E8  1283               	bcf	3,5	;RP0=0, select bank0
   884  02E9  00A0               	movwf	mydelay@t
   885  02EA  3000               	movlw	0
   886  02EB  00A1               	movwf	mydelay@t+1
   887  02EC  21E7               	fcall	_mydelay
   888  02ED                     l1042:
   889                           
   890                           ;QC3-16F630-C.c: 103:         mydelay(178);
   891  02ED  3001               	movlw	1
   892  02EE  1283               	bcf	3,5	;RP0=0, select bank0
   893  02EF  07A9               	addwf	INOV@i,f
   894  02F0  1803               	skipnc
   895  02F1  0AAA               	incf	INOV@i+1,f
   896  02F2  3000               	movlw	0
   897  02F3  07AA               	addwf	INOV@i+1,f
   898  02F4                     l1044:
   899  02F4  0836               	movf	_eep1,w
   900  02F5  3EDB               	addlw	219
   901  02F6  00A6               	movwf	??_INOV
   902  02F7  30FF               	movlw	255
   903  02F8  1803               	skipnc
   904  02F9  3000               	movlw	0
   905  02FA  00A7               	movwf	??_INOV+1
   906  02FB  0827               	movf	??_INOV+1,w
   907  02FC  3A80               	xorlw	128
   908  02FD  00A8               	movwf	??_INOV+2
   909  02FE  082A               	movf	INOV@i+1,w
   910  02FF  3A80               	xorlw	128
   911  0300  0228               	subwf	??_INOV+2,w
   912  0301  1D03               	skipz
   913  0302  2B05               	goto	u285
   914  0303  0829               	movf	INOV@i,w
   915  0304  0226               	subwf	??_INOV,w
   916  0305                     u285:
   917  0305  1803               	skipnc
   918  0306  2B08               	goto	u281
   919  0307  2B09               	goto	u280
   920  0308                     u281:
   921  0308  2AE6               	goto	l1040
   922  0309                     u280:
   923  0309                     l1046:
   924                           
   925                           ;QC3-16F630-C.c: 104:         while(PORTAbits.RA2 == 1){
   926  0309  1283               	bcf	3,5	;RP0=0, select bank0
   927  030A  0836               	movf	_eep1,w
   928  030B  3EDB               	addlw	219
   929  030C  00DF               	movwf	btemp+1
   930  030D  085F               	movf	btemp+1,w
   931  030E  00B5               	movwf	_dem2
   932  030F                     l1048:
   933                           
   934                           ;QC3-16F630-C.c: 106:                 inc200mv();
   935  030F  3025               	movlw	37
   936  0310  0236               	subwf	_eep1,w
   937  0311  1803               	skipnc
   938  0312  2B14               	goto	u291
   939  0313  2B15               	goto	u290
   940  0314                     u291:
   941  0314  2B41               	goto	l1060
   942  0315                     u290:
   943  0315                     l1050:
   944                           
   945                           ;QC3-16F630-C.c: 107:                 dem2 ++;
   946  0315  01AB               	clrf	INOV@i_185
   947  0316  01AC               	clrf	INOV@i_185+1
   948  0317  2B26               	goto	l1056
   949  0318                     l1052:
   950                           
   951                           ;QC3-16F630-C.c: 108:                 char t = 0x25 + dem2;
   952  0318  2191               	fcall	_dec200mv
   953                           
   954                           ;QC3-16F630-C.c: 109:                 eepromwrite(0x00,t);
   955  0319  30FD               	movlw	253
   956  031A  1283               	bcf	3,5	;RP0=0, select bank0
   957  031B  00A0               	movwf	mydelay@t
   958  031C  3000               	movlw	0
   959  031D  00A1               	movwf	mydelay@t+1
   960  031E  21E7               	fcall	_mydelay
   961  031F                     l1054:
   962                           
   963                           ;QC3-16F630-C.c: 110:                 mydelay(178);
   964  031F  3001               	movlw	1
   965  0320  1283               	bcf	3,5	;RP0=0, select bank0
   966  0321  07AB               	addwf	INOV@i_185,f
   967  0322  1803               	skipnc
   968  0323  0AAC               	incf	INOV@i_185+1,f
   969  0324  3000               	movlw	0
   970  0325  07AC               	addwf	INOV@i_185+1,f
   971  0326                     l1056:
   972  0326  3000               	movlw	0
   973  0327  00A7               	movwf	??_INOV+1
   974  0328  0836               	movf	_eep1,w
   975  0329  3C25               	sublw	37
   976  032A  00A6               	movwf	??_INOV
   977  032B  1C03               	skipc
   978  032C  03A7               	decf	??_INOV+1,f
   979  032D  0827               	movf	??_INOV+1,w
   980  032E  3A80               	xorlw	128
   981  032F  00A8               	movwf	??_INOV+2
   982  0330  082C               	movf	INOV@i_185+1,w
   983  0331  3A80               	xorlw	128
   984  0332  0228               	subwf	??_INOV+2,w
   985  0333  1D03               	skipz
   986  0334  2B37               	goto	u305
   987  0335  082B               	movf	INOV@i_185,w
   988  0336  0226               	subwf	??_INOV,w
   989  0337                     u305:
   990  0337  1803               	skipnc
   991  0338  2B3A               	goto	u301
   992  0339  2B3B               	goto	u300
   993  033A                     u301:
   994  033A  2B18               	goto	l1052
   995  033B                     u300:
   996  033B                     l1058:
   997                           
   998                           ;QC3-16F630-C.c: 111:             }
   999  033B  1283               	bcf	3,5	;RP0=0, select bank0
  1000  033C  0836               	movf	_eep1,w
  1001  033D  3C25               	sublw	37
  1002  033E  00DF               	movwf	btemp+1
  1003  033F  085F               	movf	btemp+1,w
  1004  0340  00B5               	movwf	_dem2
  1005  0341                     l1060:
  1006                           
  1007                           ;QC3-16F630-C.c: 113:                 dec200mv();
  1008  0341  30B2               	movlw	178
  1009  0342  1283               	bcf	3,5	;RP0=0, select bank0
  1010  0343  00A0               	movwf	mydelay@t
  1011  0344  3000               	movlw	0
  1012  0345  00A1               	movwf	mydelay@t+1
  1013  0346  21E7               	fcall	_mydelay
  1014                           
  1015                           ;QC3-16F630-C.c: 114:                 dem2 --;
  1016  0347  2B82               	goto	l1082
  1017  0348                     l84:
  1018                           
  1019                           ;QC3-16F630-C.c: 115:                 char t1 = 0x25 + dem2;
  1020  0348  1805               	btfsc	5,0	;volatile
  1021  0349  2B4B               	goto	u311
  1022  034A  2B4C               	goto	u310
  1023  034B                     u311:
  1024  034B  2B68               	goto	l1072
  1025  034C                     u310:
  1026  034C                     l1062:
  1027                           
  1028                           ;QC3-16F630-C.c: 116:                 eepromwrite(0x00,t1);
  1029  034C  21B5               	fcall	_inc200mv
  1030  034D                     l1064:
  1031                           
  1032                           ;QC3-16F630-C.c: 117:                 mydelay(178);
  1033  034D  3001               	movlw	1
  1034  034E  00DF               	movwf	btemp+1
  1035  034F  085F               	movf	btemp+1,w
  1036  0350  1283               	bcf	3,5	;RP0=0, select bank0
  1037  0351  07B5               	addwf	_dem2,f
  1038  0352                     l1066:
  1039                           
  1040                           ;QC3-16F630-C.c: 118:             }
  1041  0352  0835               	movf	_dem2,w
  1042  0353  3E25               	addlw	37
  1043  0354  00DF               	movwf	btemp+1
  1044  0355  085F               	movf	btemp+1,w
  1045  0356  00AD               	movwf	INOV@t
  1046  0357                     l1068:
  1047                           
  1048                           ;QC3-16F630-C.c: 119:         }
  1049  0357  3000               	movlw	0
  1050  0358  00A0               	movwf	eepromwrite@add
  1051  0359  00A1               	movwf	eepromwrite@add+1
  1052  035A  082D               	movf	INOV@t,w
  1053  035B  00A6               	movwf	??_INOV
  1054  035C  01A7               	clrf	??_INOV+1
  1055  035D  0826               	movf	??_INOV,w
  1056  035E  00A2               	movwf	eepromwrite@dat
  1057  035F  0827               	movf	??_INOV+1,w
  1058  0360  00A3               	movwf	eepromwrite@dat+1
  1059  0361  2164               	fcall	_eepromwrite
  1060  0362                     l1070:
  1061                           
  1062                           ;QC3-16F630-C.c: 120:         volt5();
  1063  0362  30B2               	movlw	178
  1064  0363  1283               	bcf	3,5	;RP0=0, select bank0
  1065  0364  00A0               	movwf	mydelay@t
  1066  0365  3000               	movlw	0
  1067  0366  00A1               	movwf	mydelay@t+1
  1068  0367  21E7               	fcall	_mydelay
  1069  0368                     l1072:
  1070                           
  1071                           ;QC3-16F630-C.c: 122:     if(changed == 0){
  1072  0368  1283               	bcf	3,5	;RP0=0, select bank0
  1073  0369  1A05               	btfsc	5,4	;volatile
  1074  036A  2B6C               	goto	u321
  1075  036B  2B6D               	goto	u320
  1076  036C                     u321:
  1077  036C  2B82               	goto	l1082
  1078  036D                     u320:
  1079  036D                     l1074:
  1080                           
  1081                           ;QC3-16F630-C.c: 123:         eepromwrite(0x01,0x01);
  1082  036D  2191               	fcall	_dec200mv
  1083  036E                     l1076:
  1084                           
  1085                           ;QC3-16F630-C.c: 124:         mydelay(253);
  1086  036E  3001               	movlw	1
  1087  036F  1283               	bcf	3,5	;RP0=0, select bank0
  1088  0370  02B5               	subwf	_dem2,f
  1089  0371                     l1078:
  1090                           
  1091                           ;QC3-16F630-C.c: 125:         eepromwrite(0x00,0x25);
  1092  0371  0835               	movf	_dem2,w
  1093  0372  3E25               	addlw	37
  1094  0373  00DF               	movwf	btemp+1
  1095  0374  085F               	movf	btemp+1,w
  1096  0375  00AE               	movwf	INOV@t1
  1097                           
  1098                           ;QC3-16F630-C.c: 126:         mydelay(178);
  1099  0376  3000               	movlw	0
  1100  0377  00A0               	movwf	eepromwrite@add
  1101  0378  00A1               	movwf	eepromwrite@add+1
  1102  0379  082E               	movf	INOV@t1,w
  1103  037A  00A6               	movwf	??_INOV
  1104  037B  01A7               	clrf	??_INOV+1
  1105  037C  0826               	movf	??_INOV,w
  1106  037D  00A2               	movwf	eepromwrite@dat
  1107  037E  0827               	movf	??_INOV+1,w
  1108  037F  00A3               	movwf	eepromwrite@dat+1
  1109  0380  2164               	fcall	_eepromwrite
  1110  0381  2B41               	goto	l1060
  1111  0382                     l1082:
  1112                           
  1113                           ;QC3-16F630-C.c: 114:                 dem2 --;
  1114  0382  1283               	bcf	3,5	;RP0=0, select bank0
  1115  0383  1905               	btfsc	5,2	;volatile
  1116  0384  2B86               	goto	u331
  1117  0385  2B87               	goto	u330
  1118  0386                     u331:
  1119  0386  2B48               	goto	l84
  1120  0387                     u330:
  1121  0387                     l1084:
  1122                           
  1123                           ;QC3-16F630-C.c: 130:                 dem2 ++;
  1124  0387  21C7               	fcall	_volt5
  1125  0388                     l1086:
  1126                           
  1127                           ;QC3-16F630-C.c: 132:                 eepromwrite(0x00,t);
  1128  0388  1283               	bcf	3,5	;RP0=0, select bank0
  1129  0389  0833               	movf	_changed,w
  1130  038A  0434               	iorwf	_changed+1,w
  1131  038B  1D03               	btfss	3,2
  1132  038C  2B8E               	goto	u341
  1133  038D  2B8F               	goto	u340
  1134  038E                     u341:
  1135  038E  2BF3               	goto	l94
  1136  038F                     u340:
  1137  038F                     l1088:
  1138                           
  1139                           ;QC3-16F630-C.c: 133:                 mydelay(178);
  1140  038F  3001               	movlw	1
  1141  0390  00A0               	movwf	eepromwrite@add
  1142  0391  3000               	movlw	0
  1143  0392  00A1               	movwf	eepromwrite@add+1
  1144  0393  3001               	movlw	1
  1145  0394  00A2               	movwf	eepromwrite@dat
  1146  0395  3000               	movlw	0
  1147  0396  00A3               	movwf	eepromwrite@dat+1
  1148  0397  2164               	fcall	_eepromwrite
  1149  0398                     l1090:
  1150                           
  1151                           ;QC3-16F630-C.c: 134:             }
  1152  0398  30FD               	movlw	253
  1153  0399  1283               	bcf	3,5	;RP0=0, select bank0
  1154  039A  00A0               	movwf	mydelay@t
  1155  039B  3000               	movlw	0
  1156  039C  00A1               	movwf	mydelay@t+1
  1157  039D  21E7               	fcall	_mydelay
  1158  039E                     l1092:
  1159                           
  1160                           ;QC3-16F630-C.c: 135:             if(PORTAbits.RA4 == 0){
  1161  039E  3000               	movlw	0
  1162  039F  1283               	bcf	3,5	;RP0=0, select bank0
  1163  03A0  00A0               	movwf	eepromwrite@add
  1164  03A1  00A1               	movwf	eepromwrite@add+1
  1165  03A2  3025               	movlw	37
  1166  03A3  00A2               	movwf	eepromwrite@dat
  1167  03A4  3000               	movlw	0
  1168  03A5  00A3               	movwf	eepromwrite@dat+1
  1169  03A6  2164               	fcall	_eepromwrite
  1170                           
  1171                           ;QC3-16F630-C.c: 136:                 dec200mv();
  1172  03A7  30B2               	movlw	178
  1173  03A8  1283               	bcf	3,5	;RP0=0, select bank0
  1174  03A9  00A0               	movwf	mydelay@t
  1175  03AA  3000               	movlw	0
  1176  03AB  00A1               	movwf	mydelay@t+1
  1177  03AC  21E7               	fcall	_mydelay
  1178                           
  1179                           ;QC3-16F630-C.c: 137:                 dem2 --;
  1180  03AD  2BED               	goto	l1114
  1181  03AE                     l90:
  1182                           
  1183                           ;QC3-16F630-C.c: 138:                 char t1 = 0x25 + dem2;
  1184  03AE  1805               	btfsc	5,0	;volatile
  1185  03AF  2BB1               	goto	u351
  1186  03B0  2BB2               	goto	u350
  1187  03B1                     u351:
  1188  03B1  2BCE               	goto	l1104
  1189  03B2                     u350:
  1190  03B2                     l1094:
  1191                           
  1192                           ;QC3-16F630-C.c: 139:                 eepromwrite(0x00,t1);
  1193  03B2  21B5               	fcall	_inc200mv
  1194  03B3                     l1096:
  1195                           
  1196                           ;QC3-16F630-C.c: 140:                 mydelay(178);
  1197  03B3  3001               	movlw	1
  1198  03B4  00DF               	movwf	btemp+1
  1199  03B5  085F               	movf	btemp+1,w
  1200  03B6  1283               	bcf	3,5	;RP0=0, select bank0
  1201  03B7  07B5               	addwf	_dem2,f
  1202  03B8                     l1098:
  1203                           
  1204                           ;QC3-16F630-C.c: 141:             }
  1205  03B8  0835               	movf	_dem2,w
  1206  03B9  3E25               	addlw	37
  1207  03BA  00DF               	movwf	btemp+1
  1208  03BB  085F               	movf	btemp+1,w
  1209  03BC  00AF               	movwf	INOV@t_190
  1210  03BD                     l1100:
  1211                           
  1212                           ;QC3-16F630-C.c: 142:         }
  1213  03BD  3000               	movlw	0
  1214  03BE  00A0               	movwf	eepromwrite@add
  1215  03BF  00A1               	movwf	eepromwrite@add+1
  1216  03C0  082F               	movf	INOV@t_190,w
  1217  03C1  00A6               	movwf	??_INOV
  1218  03C2  01A7               	clrf	??_INOV+1
  1219  03C3  0826               	movf	??_INOV,w
  1220  03C4  00A2               	movwf	eepromwrite@dat
  1221  03C5  0827               	movf	??_INOV+1,w
  1222  03C6  00A3               	movwf	eepromwrite@dat+1
  1223  03C7  2164               	fcall	_eepromwrite
  1224  03C8                     l1102:
  1225                           
  1226                           ;QC3-16F630-C.c: 143:         volt5();
  1227  03C8  30B2               	movlw	178
  1228  03C9  1283               	bcf	3,5	;RP0=0, select bank0
  1229  03CA  00A0               	movwf	mydelay@t
  1230  03CB  3000               	movlw	0
  1231  03CC  00A1               	movwf	mydelay@t+1
  1232  03CD  21E7               	fcall	_mydelay
  1233  03CE                     l1104:
  1234                           
  1235                           ;QC3-16F630-C.c: 145: }
  1236  03CE  1283               	bcf	3,5	;RP0=0, select bank0
  1237  03CF  1A05               	btfsc	5,4	;volatile
  1238  03D0  2BD2               	goto	u361
  1239  03D1  2BD3               	goto	u360
  1240  03D2                     u361:
  1241  03D2  2BED               	goto	l1114
  1242  03D3                     u360:
  1243  03D3                     l1106:
  1244                           
  1245                           ;QC3-16F630-C.c: 146: void main(void) {
  1246  03D3  2191               	fcall	_dec200mv
  1247  03D4                     l1108:
  1248                           
  1249                           ;QC3-16F630-C.c: 147:     TRISC = 0b00011000;
  1250  03D4  3001               	movlw	1
  1251  03D5  1283               	bcf	3,5	;RP0=0, select bank0
  1252  03D6  02B5               	subwf	_dem2,f
  1253  03D7                     l1110:
  1254                           
  1255                           ;QC3-16F630-C.c: 148:     PORTC = 0b00000000;
  1256  03D7  0835               	movf	_dem2,w
  1257  03D8  3E25               	addlw	37
  1258  03D9  00DF               	movwf	btemp+1
  1259  03DA  085F               	movf	btemp+1,w
  1260  03DB  00B0               	movwf	INOV@t1_191
  1261                           
  1262                           ;QC3-16F630-C.c: 149:     CMCON = 0b00000111;
  1263  03DC  3000               	movlw	0
  1264  03DD  00A0               	movwf	eepromwrite@add
  1265  03DE  00A1               	movwf	eepromwrite@add+1
  1266  03DF  0830               	movf	INOV@t1_191,w
  1267  03E0  00A6               	movwf	??_INOV
  1268  03E1  01A7               	clrf	??_INOV+1
  1269  03E2  0826               	movf	??_INOV,w
  1270  03E3  00A2               	movwf	eepromwrite@dat
  1271  03E4  0827               	movf	??_INOV+1,w
  1272  03E5  00A3               	movwf	eepromwrite@dat+1
  1273  03E6  2164               	fcall	_eepromwrite
  1274  03E7                     l1112:
  1275                           
  1276                           ;QC3-16F630-C.c: 150:     OPTION_REG = 0b00000000;
  1277  03E7  30B2               	movlw	178
  1278  03E8  1283               	bcf	3,5	;RP0=0, select bank0
  1279  03E9  00A0               	movwf	mydelay@t
  1280  03EA  3000               	movlw	0
  1281  03EB  00A1               	movwf	mydelay@t+1
  1282  03EC  21E7               	fcall	_mydelay
  1283  03ED                     l1114:
  1284                           
  1285                           ;QC3-16F630-C.c: 137:                 dem2 --;
  1286  03ED  1283               	bcf	3,5	;RP0=0, select bank0
  1287  03EE  1905               	btfsc	5,2	;volatile
  1288  03EF  2BF1               	goto	u371
  1289  03F0  2BF2               	goto	u370
  1290  03F1                     u371:
  1291  03F1  2BAE               	goto	l90
  1292  03F2                     u370:
  1293  03F2                     l1116:
  1294                           
  1295                           ;QC3-16F630-C.c: 153: 
  1296  03F2  21C7               	fcall	_volt5
  1297  03F3                     l94:
  1298  03F3  0008               	return
  1299  03F4                     __end_of_INOV:
  1300                           
  1301                           	psect	text4
  1302  01C7                     __ptext4:	
  1303 ;; *************** function _volt5 *****************
  1304 ;; Defined at:
  1305 ;;		line 61 in file "QC3-16F630-C.c"
  1306 ;; Parameters:    Size  Location     Type
  1307 ;;		None
  1308 ;; Auto vars:     Size  Location     Type
  1309 ;;		None
  1310 ;; Return value:  Size  Location     Type
  1311 ;;                  1    wreg      void 
  1312 ;; Registers used:
  1313 ;;		wreg, status,2, status,0, btemp+1, pclath, cstack
  1314 ;; Tracked objects:
  1315 ;;		On entry : 0/0
  1316 ;;		On exit  : 0/0
  1317 ;;		Unchanged: 0/0
  1318 ;; Data sizes:     COMMON   BANK0
  1319 ;;      Params:         0       0
  1320 ;;      Locals:         0       0
  1321 ;;      Temps:          0       0
  1322 ;;      Totals:         0       0
  1323 ;;Total ram usage:        0 bytes
  1324 ;; Hardware stack levels used:    1
  1325 ;; Hardware stack levels required when called:    1
  1326 ;; This function calls:
  1327 ;;		_eepromwrite
  1328 ;;		_mydelay
  1329 ;; This function is called by:
  1330 ;;		_INOV
  1331 ;;		_main
  1332 ;; This function uses a non-reentrant model
  1333 ;;
  1334                           
  1335                           
  1336                           ;psect for function _volt5
  1337  01C7                     _volt5:
  1338  01C7                     l990:	
  1339                           ;incstack = 0
  1340                           ; Regs used in _volt5: [wreg+status,2+status,0+btemp+1+pclath+cstack]
  1341                           
  1342                           
  1343                           ;QC3-16F630-C.c: 65:     PORTCbits.RC4 = 1;
  1344  01C7  3010               	movlw	16
  1345  01C8  1683               	bsf	3,5	;RP0=1, select bank1
  1346  01C9  0087               	movwf	7	;volatile
  1347                           
  1348                           ;QC3-16F630-C.c: 66:     mydelay(253);
  1349  01CA  3001               	movlw	1
  1350  01CB  1283               	bcf	3,5	;RP0=0, select bank0
  1351  01CC  0087               	movwf	7	;volatile
  1352  01CD                     l992:
  1353                           
  1354                           ;QC3-16F630-C.c: 67:     TRISCbits.TRISC4 = 0x01;
  1355  01CD  1085               	bcf	5,1	;volatile
  1356  01CE                     l994:
  1357                           
  1358                           ;QC3-16F630-C.c: 68:     mydelay(253);
  1359  01CE  01B5               	clrf	_dem2
  1360  01CF                     l996:
  1361                           
  1362                           ;QC3-16F630-C.c: 69: }
  1363  01CF  3000               	movlw	0
  1364  01D0  00A0               	movwf	eepromwrite@add
  1365  01D1  00A1               	movwf	eepromwrite@add+1
  1366  01D2  3025               	movlw	37
  1367  01D3  00A2               	movwf	eepromwrite@dat
  1368  01D4  3000               	movlw	0
  1369  01D5  00A3               	movwf	eepromwrite@dat+1
  1370  01D6  2164               	fcall	_eepromwrite
  1371  01D7                     l998:
  1372                           
  1373                           ;QC3-16F630-C.c: 70: void dec200mv(){
  1374  01D7  30FD               	movlw	253
  1375  01D8  1283               	bcf	3,5	;RP0=0, select bank0
  1376  01D9  00A0               	movwf	mydelay@t
  1377  01DA  3000               	movlw	0
  1378  01DB  00A1               	movwf	mydelay@t+1
  1379  01DC  21E7               	fcall	_mydelay
  1380  01DD                     l1000:
  1381                           
  1382                           ;QC3-16F630-C.c: 71:     TRISCbits.TRISC3 = 0x01;
  1383  01DD  3001               	movlw	1
  1384  01DE  1283               	bcf	3,5	;RP0=0, select bank0
  1385  01DF  00A0               	movwf	eepromwrite@add
  1386  01E0  3000               	movlw	0
  1387  01E1  00A1               	movwf	eepromwrite@add+1
  1388  01E2  3000               	movlw	0
  1389  01E3  00A2               	movwf	eepromwrite@dat
  1390  01E4  00A3               	movwf	eepromwrite@dat+1
  1391  01E5  2164               	fcall	_eepromwrite
  1392  01E6                     l65:
  1393  01E6  0008               	return
  1394  01E7                     __end_of_volt5:
  1395                           
  1396                           	psect	text5
  1397  0164                     __ptext5:	
  1398 ;; *************** function _eepromwrite *****************
  1399 ;; Defined at:
  1400 ;;		line 31 in file "QC3-16F630-C.c"
  1401 ;; Parameters:    Size  Location     Type
  1402 ;;  add             2    0[BANK0 ] int 
  1403 ;;  dat             2    2[BANK0 ] int 
  1404 ;; Auto vars:     Size  Location     Type
  1405 ;;		None
  1406 ;; Return value:  Size  Location     Type
  1407 ;;                  2    0[BANK0 ] int 
  1408 ;; Registers used:
  1409 ;;		wreg
  1410 ;; Tracked objects:
  1411 ;;		On entry : 0/0
  1412 ;;		On exit  : 0/0
  1413 ;;		Unchanged: 0/0
  1414 ;; Data sizes:     COMMON   BANK0
  1415 ;;      Params:         0       4
  1416 ;;      Locals:         0       0
  1417 ;;      Temps:          0       0
  1418 ;;      Totals:         0       4
  1419 ;;Total ram usage:        4 bytes
  1420 ;; Hardware stack levels used:    1
  1421 ;; This function calls:
  1422 ;;		Nothing
  1423 ;; This function is called by:
  1424 ;;		_volt12
  1425 ;;		_volt9
  1426 ;;		_volt5
  1427 ;;		_INOV
  1428 ;; This function uses a non-reentrant model
  1429 ;;
  1430                           
  1431                           
  1432                           ;psect for function _eepromwrite
  1433  0164                     _eepromwrite:
  1434  0164                     l976:	
  1435                           ;incstack = 0
  1436                           ; Regs used in _eepromwrite: [wreg]
  1437                           
  1438                           
  1439                           ;QC3-16F630-C.c: 32:     EECON1bits.RD = 1;
  1440  0164  1283               	bcf	3,5	;RP0=0, select bank0
  1441  0165  0820               	movf	eepromwrite@add,w
  1442  0166  1683               	bsf	3,5	;RP0=1, select bank1
  1443  0167  009B               	movwf	27	;volatile
  1444                           
  1445                           ;QC3-16F630-C.c: 33:     int dat = EEDATA;
  1446  0168  1283               	bcf	3,5	;RP0=0, select bank0
  1447  0169  0822               	movf	eepromwrite@dat,w
  1448  016A  1683               	bsf	3,5	;RP0=1, select bank1
  1449  016B  009A               	movwf	26	;volatile
  1450  016C                     l978:
  1451                           
  1452                           ;QC3-16F630-C.c: 34:     return dat;
  1453  016C  151C               	bsf	28,2	;volsfr
  1454                           
  1455                           ;QC3-16F630-C.c: 35: }
  1456  016D  3055               	movlw	85
  1457  016E  009D               	movwf	29	;volsfr
  1458                           
  1459                           ;QC3-16F630-C.c: 36: void volt12(){
  1460  016F  30AA               	movlw	170
  1461  0170  009D               	movwf	29	;volsfr
  1462  0171                     l980:
  1463                           
  1464                           ;QC3-16F630-C.c: 37: 
  1465  0171  149C               	bsf	28,1	;volsfr
  1466  0172                     l53:
  1467  0172  0008               	return
  1468  0173                     __end_of_eepromwrite:
  1469                           
  1470                           	psect	text6
  1471  01B5                     __ptext6:	
  1472 ;; *************** function _inc200mv *****************
  1473 ;; Defined at:
  1474 ;;		line 73 in file "QC3-16F630-C.c"
  1475 ;; Parameters:    Size  Location     Type
  1476 ;;		None
  1477 ;; Auto vars:     Size  Location     Type
  1478 ;;		None
  1479 ;; Return value:  Size  Location     Type
  1480 ;;                  1    wreg      void 
  1481 ;; Registers used:
  1482 ;;		wreg, status,2, status,0, btemp+1, pclath, cstack
  1483 ;; Tracked objects:
  1484 ;;		On entry : 0/0
  1485 ;;		On exit  : 0/0
  1486 ;;		Unchanged: 0/0
  1487 ;; Data sizes:     COMMON   BANK0
  1488 ;;      Params:         0       0
  1489 ;;      Locals:         0       0
  1490 ;;      Temps:          0       0
  1491 ;;      Totals:         0       0
  1492 ;;Total ram usage:        0 bytes
  1493 ;; Hardware stack levels used:    1
  1494 ;; Hardware stack levels required when called:    1
  1495 ;; This function calls:
  1496 ;;		_mydelay
  1497 ;; This function is called by:
  1498 ;;		_INOV
  1499 ;; This function uses a non-reentrant model
  1500 ;;
  1501                           
  1502                           
  1503                           ;psect for function _inc200mv
  1504  01B5                     _inc200mv:
  1505  01B5                     l1002:	
  1506                           ;incstack = 0
  1507                           ; Regs used in _inc200mv: [wreg+status,2+status,0+btemp+1+pclath+cstack]
  1508                           
  1509                           
  1510                           ;QC3-16F630-C.c: 74:     PORTCbits.RC3 = 1;
  1511  01B5  1683               	bsf	3,5	;RP0=1, select bank1
  1512  01B6  1207               	bcf	7,4	;volatile
  1513                           
  1514                           ;QC3-16F630-C.c: 75:     mydelay(253);
  1515  01B7  1283               	bcf	3,5	;RP0=0, select bank0
  1516  01B8  1607               	bsf	7,4	;volatile
  1517  01B9                     l1004:
  1518                           
  1519                           ;QC3-16F630-C.c: 76: }
  1520  01B9  30FD               	movlw	253
  1521  01BA  00A0               	movwf	mydelay@t
  1522  01BB  3000               	movlw	0
  1523  01BC  00A1               	movwf	mydelay@t+1
  1524  01BD  21E7               	fcall	_mydelay
  1525  01BE                     l1006:
  1526                           
  1527                           ;QC3-16F630-C.c: 77: void INOV(){
  1528  01BE  1683               	bsf	3,5	;RP0=1, select bank1
  1529  01BF  1607               	bsf	7,4	;volatile
  1530                           
  1531                           ;QC3-16F630-C.c: 78: 
  1532  01C0  30FD               	movlw	253
  1533  01C1  1283               	bcf	3,5	;RP0=0, select bank0
  1534  01C2  00A0               	movwf	mydelay@t
  1535  01C3  3000               	movlw	0
  1536  01C4  00A1               	movwf	mydelay@t+1
  1537  01C5  21E7               	fcall	_mydelay
  1538  01C6                     l68:
  1539  01C6  0008               	return
  1540  01C7                     __end_of_inc200mv:
  1541                           
  1542                           	psect	text7
  1543  01A3                     __ptext7:	
  1544 ;; *************** function _eepromread *****************
  1545 ;; Defined at:
  1546 ;;		line 40 in file "QC3-16F630-C.c"
  1547 ;; Parameters:    Size  Location     Type
  1548 ;;  add             2    0[BANK0 ] int 
  1549 ;; Auto vars:     Size  Location     Type
  1550 ;;  dat             2    4[BANK0 ] int 
  1551 ;; Return value:  Size  Location     Type
  1552 ;;                  2    0[BANK0 ] int 
  1553 ;; Registers used:
  1554 ;;		wreg
  1555 ;; Tracked objects:
  1556 ;;		On entry : 0/0
  1557 ;;		On exit  : 0/0
  1558 ;;		Unchanged: 0/0
  1559 ;; Data sizes:     COMMON   BANK0
  1560 ;;      Params:         0       2
  1561 ;;      Locals:         0       2
  1562 ;;      Temps:          0       2
  1563 ;;      Totals:         0       6
  1564 ;;Total ram usage:        6 bytes
  1565 ;; Hardware stack levels used:    1
  1566 ;; This function calls:
  1567 ;;		Nothing
  1568 ;; This function is called by:
  1569 ;;		_INOV
  1570 ;;		_main
  1571 ;; This function uses a non-reentrant model
  1572 ;;
  1573                           
  1574                           
  1575                           ;psect for function _eepromread
  1576  01A3                     _eepromread:
  1577  01A3                     l984:	
  1578                           ;incstack = 0
  1579                           ; Regs used in _eepromread: [wreg]
  1580                           
  1581                           
  1582                           ;QC3-16F630-C.c: 41:     eepromwrite(0x00,0x60);
  1583  01A3  1283               	bcf	3,5	;RP0=0, select bank0
  1584  01A4  0820               	movf	eepromread@add,w
  1585  01A5  1683               	bsf	3,5	;RP0=1, select bank1
  1586  01A6  009B               	movwf	27	;volatile
  1587  01A7                     l986:
  1588                           
  1589                           ;QC3-16F630-C.c: 42: }
  1590  01A7  141C               	bsf	28,0	;volsfr
  1591                           
  1592                           ;QC3-16F630-C.c: 43: void volt9(){
  1593  01A8  081A               	movf	26,w	;volatile
  1594  01A9  1283               	bcf	3,5	;RP0=0, select bank0
  1595  01AA  00A2               	movwf	??_eepromread
  1596  01AB  01A3               	clrf	??_eepromread+1
  1597  01AC  0822               	movf	??_eepromread,w
  1598  01AD  00A4               	movwf	eepromread@dat
  1599  01AE  0823               	movf	??_eepromread+1,w
  1600  01AF  00A5               	movwf	eepromread@dat+1
  1601                           
  1602                           ;QC3-16F630-C.c: 44: 
  1603  01B0  0825               	movf	eepromread@dat+1,w
  1604  01B1  00A1               	movwf	?_eepromread+1
  1605  01B2  0824               	movf	eepromread@dat,w
  1606  01B3  00A0               	movwf	?_eepromread
  1607  01B4                     l56:
  1608  01B4  0008               	return
  1609  01B5                     __end_of_eepromread:
  1610                           
  1611                           	psect	text8
  1612  0191                     __ptext8:	
  1613 ;; *************** function _dec200mv *****************
  1614 ;; Defined at:
  1615 ;;		line 80 in file "QC3-16F630-C.c"
  1616 ;; Parameters:    Size  Location     Type
  1617 ;;		None
  1618 ;; Auto vars:     Size  Location     Type
  1619 ;;		None
  1620 ;; Return value:  Size  Location     Type
  1621 ;;                  1    wreg      void 
  1622 ;; Registers used:
  1623 ;;		wreg, status,2, status,0, btemp+1, pclath, cstack
  1624 ;; Tracked objects:
  1625 ;;		On entry : 0/0
  1626 ;;		On exit  : 0/0
  1627 ;;		Unchanged: 0/0
  1628 ;; Data sizes:     COMMON   BANK0
  1629 ;;      Params:         0       0
  1630 ;;      Locals:         0       0
  1631 ;;      Temps:          0       0
  1632 ;;      Totals:         0       0
  1633 ;;Total ram usage:        0 bytes
  1634 ;; Hardware stack levels used:    1
  1635 ;; Hardware stack levels required when called:    1
  1636 ;; This function calls:
  1637 ;;		_mydelay
  1638 ;; This function is called by:
  1639 ;;		_INOV
  1640 ;; This function uses a non-reentrant model
  1641 ;;
  1642                           
  1643                           
  1644                           ;psect for function _dec200mv
  1645  0191                     _dec200mv:
  1646  0191                     l1008:	
  1647                           ;incstack = 0
  1648                           ; Regs used in _dec200mv: [wreg+status,2+status,0+btemp+1+pclath+cstack]
  1649                           
  1650                           
  1651                           ;QC3-16F630-C.c: 81:     TRISC = 0b00010000;
  1652  0191  1683               	bsf	3,5	;RP0=1, select bank1
  1653  0192  1587               	bsf	7,3	;volatile
  1654  0193                     l1010:
  1655                           
  1656                           ;QC3-16F630-C.c: 82:     PORTC = 0b00001000;
  1657  0193  30FD               	movlw	253
  1658  0194  1283               	bcf	3,5	;RP0=0, select bank0
  1659  0195  00A0               	movwf	mydelay@t
  1660  0196  3000               	movlw	0
  1661  0197  00A1               	movwf	mydelay@t+1
  1662  0198  21E7               	fcall	_mydelay
  1663  0199                     l1012:
  1664                           
  1665                           ;QC3-16F630-C.c: 83:     PORTAbits.RA1 = 1;
  1666  0199  1683               	bsf	3,5	;RP0=1, select bank1
  1667  019A  1187               	bcf	7,3	;volatile
  1668  019B                     l1014:
  1669                           
  1670                           ;QC3-16F630-C.c: 84:     if(changed == 1){
  1671  019B  1283               	bcf	3,5	;RP0=0, select bank0
  1672  019C  1587               	bsf	7,3	;volatile
  1673                           
  1674                           ;QC3-16F630-C.c: 85: 
  1675  019D  30FD               	movlw	253
  1676  019E  00A0               	movwf	mydelay@t
  1677  019F  3000               	movlw	0
  1678  01A0  00A1               	movwf	mydelay@t+1
  1679  01A1  21E7               	fcall	_mydelay
  1680  01A2                     l71:
  1681  01A2  0008               	return
  1682  01A3                     __end_of_dec200mv:
  1683                           
  1684                           	psect	text9
  1685  01E7                     __ptext9:	
  1686 ;; *************** function _mydelay *****************
  1687 ;; Defined at:
  1688 ;;		line 15 in file "QC3-16F630-C.c"
  1689 ;; Parameters:    Size  Location     Type
  1690 ;;  t               2    0[BANK0 ] int 
  1691 ;; Auto vars:     Size  Location     Type
  1692 ;;  i               2    2[BANK0 ] int 
  1693 ;; Return value:  Size  Location     Type
  1694 ;;                  2    0[BANK0 ] int 
  1695 ;; Registers used:
  1696 ;;		wreg, btemp+1
  1697 ;; Tracked objects:
  1698 ;;		On entry : 0/0
  1699 ;;		On exit  : 0/0
  1700 ;;		Unchanged: 0/0
  1701 ;; Data sizes:     COMMON   BANK0
  1702 ;;      Params:         0       2
  1703 ;;      Locals:         0       2
  1704 ;;      Temps:          0       0
  1705 ;;      Totals:         0       4
  1706 ;;Total ram usage:        4 bytes
  1707 ;; Hardware stack levels used:    1
  1708 ;; This function calls:
  1709 ;;		Nothing
  1710 ;; This function is called by:
  1711 ;;		_volt5
  1712 ;;		_inc200mv
  1713 ;;		_dec200mv
  1714 ;;		_INOV
  1715 ;;		_main
  1716 ;; This function uses a non-reentrant model
  1717 ;;
  1718                           
  1719                           
  1720                           ;psect for function _mydelay
  1721  01E7                     _mydelay:
  1722  01E7                     l964:	
  1723                           ;incstack = 0
  1724                           ; Regs used in _mydelay: [wreg+btemp+1]
  1725                           
  1726                           
  1727                           ;QC3-16F630-C.c: 16:         T0IF = 0;
  1728  01E7  1683               	bsf	3,5	;RP0=1, select bank1
  1729  01E8  1281               	bcf	1,5	;volatile
  1730                           
  1731                           ;QC3-16F630-C.c: 17:         TMR0 = t;
  1732  01E9  1181               	bcf	1,3	;volatile
  1733                           
  1734                           ;QC3-16F630-C.c: 18:     }
  1735  01EA  1501               	bsf	1,2	;volatile
  1736                           
  1737                           ;QC3-16F630-C.c: 19:     return 0;
  1738  01EB  1081               	bcf	1,1	;volatile
  1739                           
  1740                           ;QC3-16F630-C.c: 20: }
  1741  01EC  1001               	bcf	1,0	;volatile
  1742  01ED                     l966:
  1743                           
  1744                           ;QC3-16F630-C.c: 21: int eepromwrite(int add, int dat){
  1745  01ED  1283               	bcf	3,5	;RP0=0, select bank0
  1746  01EE  0820               	movf	mydelay@t,w
  1747  01EF  0081               	movwf	1	;volatile
  1748                           
  1749                           ;QC3-16F630-C.c: 22:     EEADR = add;
  1750  01F0  3001               	movlw	1
  1751  01F1  00A2               	movwf	mydelay@i
  1752  01F2  3000               	movlw	0
  1753  01F3  00A3               	movwf	mydelay@i+1
  1754  01F4                     l47:	
  1755                           ;QC3-16F630-C.c: 25:     EECON2 = 0x55;
  1756                           
  1757                           
  1758                           ;QC3-16F630-C.c: 23:     EEDATA = dat;
  1759  01F4  1D0B               	btfss	11,2	;volatile
  1760  01F5  29F7               	goto	u241
  1761  01F6  29F8               	goto	u240
  1762  01F7                     u241:
  1763  01F7  29F4               	goto	l47
  1764  01F8                     u240:
  1765  01F8                     l49:
  1766                           
  1767                           ;QC3-16F630-C.c: 26:     EECON2 = 0xAA;
  1768  01F8  110B               	bcf	11,2	;volatile
  1769  01F9                     l972:
  1770                           
  1771                           ;QC3-16F630-C.c: 27:     EECON1bits.WR = 1;
  1772  01F9  1283               	bcf	3,5	;RP0=0, select bank0
  1773  01FA  0820               	movf	mydelay@t,w
  1774  01FB  0081               	movwf	1	;volatile
  1775                           
  1776                           ;QC3-16F630-C.c: 28:     return 0;
  1777  01FC  3001               	movlw	1
  1778  01FD  07A2               	addwf	mydelay@i,f
  1779  01FE  1803               	skipnc
  1780  01FF  0AA3               	incf	mydelay@i+1,f
  1781  0200  3000               	movlw	0
  1782  0201  07A3               	addwf	mydelay@i+1,f
  1783  0202                     l974:
  1784  0202  0823               	movf	mydelay@i+1,w
  1785  0203  3A80               	xorlw	128
  1786  0204  00DF               	movwf	btemp+1
  1787  0205  3080               	movlw	128
  1788  0206  025F               	subwf	btemp+1,w
  1789  0207  1D03               	skipz
  1790  0208  2A0B               	goto	u255
  1791  0209  30C9               	movlw	201
  1792  020A  0222               	subwf	mydelay@i,w
  1793  020B                     u255:
  1794  020B  1C03               	skipc
  1795  020C  2A0E               	goto	u251
  1796  020D  2A0F               	goto	u250
  1797  020E                     u251:
  1798  020E  29F4               	goto	l47
  1799  020F                     u250:
  1800  020F                     l50:
  1801  020F  0008               	return
  1802  0210                     __end_of_mydelay:
  1803  005E                     btemp	set	94	;btemp
  1804  005E                     wtemp0	set	94
  1805                           
  1806                           	psect	config
  1807                           
  1808                           ;Config register CONFIG @ 0x2007
  1809                           ;	Oscillator Selection bits
  1810                           ;	FOSC = INTRCIO, INTOSC oscillator: I/O function on RA4/OSC2/CLKOUT pin, I/O function o
      +                          n RA5/OSC1/CLKIN
  1811                           ;	Watchdog Timer Enable bit
  1812                           ;	WDTE = OFF, WDT disabled
  1813                           ;	Power-up Timer Enable bit
  1814                           ;	PWRTE = OFF, PWRT disabled
  1815                           ;	RA3/MCLR pin function select
  1816                           ;	MCLRE = ON, RA3/MCLR pin function is MCLR
  1817                           ;	Brown-out Detect Enable bit
  1818                           ;	BOREN = OFF, BOD disabled
  1819                           ;	Code Protection bit
  1820                           ;	CP = OFF, Program Memory code protection is disabled
  1821                           ;	Data Code Protection bit
  1822                           ;	CPD = OFF, Data memory code protection is disabled
  1823  2007                     	org	8199
  1824  2007  3FB4               	dw	16308

Data Sizes:
    Strings     0
    Constant    0
    Data        0
    BSS         8
    Persistent  0
    Stack       0

Auto Spaces:
    Space          Size  Autos    Used
    COMMON            0      0       0
    BANK0            62     17      25

Pointer List with Targets:

    None.

Critical Paths under _main in COMMON

    None.

Critical Paths under _main in BANK0

    _main->_INOV
    _volt9->_eepromwrite
    _volt12->_eepromwrite
    _INOV->_eepromread
    _volt5->_eepromwrite
    _volt5->_mydelay
    _inc200mv->_mydelay
    _dec200mv->_mydelay

Call Graph Tables:

 ---------------------------------------------------------------------------------
 (Depth) Function   	        Calls       Base Space   Used Autos Params    Refs
 ---------------------------------------------------------------------------------
 (0) _main                                                 0     0      0   18014
                               _INOV
                         _eepromread
                            _mydelay
                             _volt12
                              _volt5
                              _volt9
 ---------------------------------------------------------------------------------
 (1) _volt9                                                0     0      0    1716
                        _eepromwrite
 ---------------------------------------------------------------------------------
 (1) _volt12                                               0     0      0    1716
                        _eepromwrite
 ---------------------------------------------------------------------------------
 (1) _INOV                                                11    11      0    9677
                                              6 BANK0     11    11      0
                           _dec200mv
                         _eepromread
                        _eepromwrite
                           _inc200mv
                            _mydelay
                              _volt5
 ---------------------------------------------------------------------------------
 (1) _volt5                                                0     0      0    3174
                        _eepromwrite
                            _mydelay
 ---------------------------------------------------------------------------------
 (2) _eepromwrite                                          4     0      4    1716
                                              0 BANK0      4     0      4
 ---------------------------------------------------------------------------------
 (2) _inc200mv                                             0     0      0    1458
                            _mydelay
 ---------------------------------------------------------------------------------
 (1) _eepromread                                           6     4      2     273
                                              0 BANK0      6     4      2
 ---------------------------------------------------------------------------------
 (2) _dec200mv                                             0     0      0    1458
                            _mydelay
 ---------------------------------------------------------------------------------
 (2) _mydelay                                              4     2      2    1458
                                              0 BANK0      4     2      2
 ---------------------------------------------------------------------------------
 Estimated maximum stack depth 2
 ---------------------------------------------------------------------------------

 Call Graph Graphs:

 _main (ROOT)
   _INOV
     _dec200mv
       _mydelay
     _eepromread
     _eepromwrite
     _inc200mv
       _mydelay
     _mydelay
     _volt5
       _eepromwrite
       _mydelay
   _eepromread
   _mydelay
   _volt12
     _eepromwrite
   _volt5
     _eepromwrite
     _mydelay
   _volt9
     _eepromwrite

 Address spaces:
Name               Size   Autos  Total    Cost      Usage
BITCOMMON            0      0       0       0        0.0%
EEDATA              80      0       0       0        0.0%
NULL                 0      0       0       0        0.0%
CODE                 0      0       0       0        0.0%
BITSFR0              0      0       0       1        0.0%
SFR0                 0      0       0       1        0.0%
COMMON               0      0       0       1        0.0%
BITSFR1              0      0       0       2        0.0%
SFR1                 0      0       0       2        0.0%
STACK                0      0       0       2        0.0%
BITBANK0            3E      0       0       3        0.0%
BANK0               3E     11      19       4       40.3%
ABS                  0      0      19       5        0.0%
DATA                 0      0      19       6        0.0%


Microchip Technology PIC Macro Assembler V2.20 build 20200408173844 
Symbol Table                                                                                   Sat Aug 08 14:20:11 2020

                     l50 020F                       l53 0172                       l62 0190  
                     l47 01F4                       l71 01A2                       l56 01B4  
                     l49 01F8                       l65 01E6                       l90 03AE  
                     l59 0181                       l68 01C6                       l84 0348  
                     l94 03F3                      l111 02B0                      l104 0285  
                    l972 01F9                      l964 01E7                      l980 0171  
                    l974 0202                      l966 01ED                      l990 01C7  
                    l984 01A3                      l976 0164                      l992 01CD  
                    l986 01A7                      l978 016C                      l994 01CE  
                    l996 01CF                      l998 01D7                      u300 033B  
                    u301 033A                      u310 034C                      u311 034B  
                    u240 01F8                      u320 036D                      u400 0257  
                    u241 01F7                      u321 036C                      u305 0337  
                    u401 0256                      u250 020F                      u330 0387  
                    u410 025F                      u251 020E                      u331 0386  
                    u411 025E                      u340 038F                      u260 02C4  
                    u420 0269                      u341 038E                      u261 02C3  
                    u421 0268                      u350 03B2                      u270 02E3  
                    u430 026E                      u255 020B                      u351 03B1  
                    u271 02E2                      u431 026D                      u360 03D3  
                    u280 0309                      u440 0278                      u361 03D2  
                    u281 0308                      u441 0277                      u370 03F2  
                    u290 0315                      u450 027D                      u371 03F1  
                    u291 0314                      u451 027C                      u460 02B5  
                    u380 0248                      u285 0305                      u461 02B4  
                    u381 0247                      u390 0252                      u391 0251  
                   l1000 01DD                     l1010 0193                     l1002 01B5  
                   l1012 0199                     l1004 01B9                     l1100 03BD  
                   l1020 0182                     l1014 019B                     l1006 01BE  
                   l1110 03D7                     l1102 03C8                     l1030 02C4  
                   l1022 0188                     l1008 0191                     l1112 03E7  
                   l1104 03CE                     l1040 02E6                     l1032 02CD  
                   l1024 02B7                     l1016 0173                     l1120 0213  
                   l1106 03D3                     l1114 03ED                     l1050 0315  
                   l1042 02ED                     l1034 02D3                     l1026 02BD  
                   l1018 0179                     l1130 021F                     l1122 0215  
                   l1116 03F2                     l1108 03D4                     l1052 0318  
                   l1060 0341                     l1044 02F4                     l1036 02DD  
                   l1028 02BE                     l1220 029C                     l1140 0237  
                   l1132 0225                     l1124 0219                     l1070 0362  
                   l1062 034C                     l1054 031F                     l1046 0309  
                   l1038 02E3                     l1150 0257                     l1142 0242  
                   l1134 0227                     l1126 021B                     l1118 0210  
                   l1064 034D                     l1072 0368                     l1056 0326  
                   l1048 030F                     l1160 026E                     l1152 0259  
                   l1144 0248                     l1136 0229                     l1128 021D  
                   l1090 0398                     l1074 036D                     l1066 0352  
                   l1082 0382                     l1058 033B                     l1170 028E  
                   l1162 0272                     l1154 025F                     l1146 024C  
                   l1138 0232                     l1092 039E                     l1084 0387  
                   l1076 036E                     l1068 0357                     l1172 0290  
                   l1180 0297                     l1164 0278                     l1156 0263  
                   l1148 0252                     l1094 03B2                     l1078 0371  
                   l1086 0388                     l1174 0292                     l1182 02AA  
                   l1166 027D                     l1158 0269                     l1096 03B3  
                   l1088 038F                     l1176 0293                     l1168 028C  
                   l1098 03B8                     _T0IF 005A                     _INOV 02B7  
                   _TMR0 0001                     _dem1 0031                     _dem2 0035  
                   _eep1 0036                     _main 0210                     btemp 005E  
                   start 0000                    ?_INOV 0020                    INOV@i 0029  
                  INOV@t 002D            eepromread@add 0020            eepromread@dat 0024  
                  ?_main 0020                    _EEADR 009B                    _CMCON 0019  
                  _PORTC 0007                    _TRISA 0085                    _TRISC 0087  
                  _volt5 01C7                    _volt9 0182          __end_of_mydelay 0210  
                  status 0003                    wtemp0 005E             __end_of_INOV 03F4  
        __initialization 03F4             __end_of_main 02B7                   ??_INOV 0026  
                 ??_main 0000                   INOV@t1 002E         __end_of_dec200mv 01A3  
                 _EEDATA 009A                   _EECON2 009D                   ?_volt5 0020  
                 ?_volt9 0020         __end_of_inc200mv 01C7     __size_of_eepromwrite 000F  
                 _volt12 0173                ??_mydelay 0000           eepromwrite@add 0020  
         eepromwrite@dat 0022  __end_of__initialization 03FD           __pcstackCOMMON 0000  
          __end_of_volt5 01E7            __end_of_volt9 0191                INOV@i_185 002B  
              INOV@t_190 002F           _OPTION_REGbits 0081                  ??_volt5 0000  
                ??_volt9 0000               __pbssBANK0 0031               __pmaintext 0210  
              ?_dec200mv 0020                  ?_volt12 0020                ?_inc200mv 0020  
             _eepromread 01A3               ??_dec200mv 0000                  _changed 0033  
                _eepdata 0038                  __ptext1 0182                  __ptext2 0173  
                __ptext3 02B7                  __ptext4 01C7                  __ptext5 0164  
                __ptext6 01B5                  __ptext7 01A3                  __ptext8 0191  
                __ptext9 01E7          __size_of_volt12 000F               ??_inc200mv 0000  
                _mydelay 01E7     end_of_initialization 03FD                _PORTAbits 0005  
              _PORTCbits 0007              ?_eepromread 0020                _TRISCbits 0087  
          ??_eepromwrite 0000           __end_of_volt12 0182      start_initialization 03F4  
             INOV@t1_191 0030      __size_of_eepromread 0012        __size_of_dec200mv 0012  
    __end_of_eepromwrite 0173                 ??_volt12 0000                ___latbits 0000  
          __pcstackBANK0 0020        __size_of_inc200mv 0012                _eepselect 0037  
               ?_mydelay 0020           __size_of_volt5 0020           __size_of_volt9 000F  
            _eepromwrite 0164             ??_eepromread 0022               _EECON1bits 009C  
               _dec200mv 0191       __end_of_eepromread 01B5                 _inc200mv 01B5  
       __size_of_mydelay 0029            __size_of_INOV 013D            __size_of_main 00A7  
               mydelay@i 0022                 mydelay@t 0020               _OPTION_REG 0081  
           ?_eepromwrite 0020  
